; Function Attrs: nounwind uwtable
define noundef nonnull ptr @l_Std_DHashMap_Internal_AssocList_contains___at_Lean_Elab_Tactic_GuardMsgs_elabGuardMsgs___spec__11___boxed(ptr noundef %0, ptr noundef %1, ptr noundef %2, ptr noundef %3) local_unnamed_addr #0 {
  %5 = getelementptr i8, ptr %2, i64 8
  br label %.critedge.i

.critedge.i:                                      ; preds = %.critedge.i.backedge, %4
  %.011.i = phi ptr [ %3, %4 ], [ %19, %.critedge.i.backedge ]
  %6 = ptrtoint ptr %.011.i to i64
  %7 = and i64 %6, 1
  %.not.i.i = icmp eq i64 %7, 0
  br i1 %.not.i.i, label %11, label %8

8:                                                ; preds = %.critedge.i
  %9 = lshr i64 %6, 1
  %10 = trunc i64 %9 to i32
  br label %lean_obj_tag.exit.i

11:                                               ; preds = %.critedge.i
  %12 = getelementptr i8, ptr %.011.i, i64 4
  %.val.i.i = load i32, ptr %12, align 4
  %13 = lshr i32 %.val.i.i, 24
  br label %lean_obj_tag.exit.i

lean_obj_tag.exit.i:                              ; preds = %11, %8
  %.0.i.i = phi i32 [ %10, %8 ], [ %13, %11 ]
  %14 = icmp eq i32 %.0.i.i, 0
  br i1 %14, label %l_Std_DHashMap_Internal_AssocList_contains___at_Lean_Elab_Tactic_GuardMsgs_elabGuardMsgs___spec__11.exit, label %15

15:                                               ; preds = %lean_obj_tag.exit.i
  %16 = getelementptr inbounds nuw i8, ptr %.011.i, i64 8
  %17 = load ptr, ptr %16, align 8, !tbaa !4
  %18 = getelementptr inbounds nuw i8, ptr %.011.i, i64 24
  %19 = load ptr, ptr %18, align 8, !tbaa !4
  %20 = icmp eq ptr %17, %2
  br i1 %20, label %l_Std_DHashMap_Internal_AssocList_contains___at_Lean_Elab_Tactic_GuardMsgs_elabGuardMsgs___spec__11.exit, label %21

21:                                               ; preds = %15
  %22 = getelementptr i8, ptr %17, i64 8
  %.val.i.i.i = load i64, ptr %22, align 8, !tbaa !11
  %.val7.i.i.i = load i64, ptr %5, align 8, !tbaa !11
  %23 = icmp eq i64 %.val.i.i.i, %.val7.i.i.i
  br i1 %23, label %lean_string_dec_eq.exit.i, label %.critedge.i.backedge

lean_string_dec_eq.exit.i:                        ; preds = %21
  %24 = tail call zeroext i1 @lean_string_eq_cold(ptr noundef nonnull %17, ptr noundef nonnull %2) #7
  br i1 %24, label %l_Std_DHashMap_Internal_AssocList_contains___at_Lean_Elab_Tactic_GuardMsgs_elabGuardMsgs___spec__11.exit, label %.critedge.i.backedge

.critedge.i.backedge:                             ; preds = %lean_string_dec_eq.exit.i, %21
  br label %.critedge.i

l_Std_DHashMap_Internal_AssocList_contains___at_Lean_Elab_Tactic_GuardMsgs_elabGuardMsgs___spec__11.exit: ; preds = %lean_obj_tag.exit.i, %15, %lean_string_dec_eq.exit.i
  %.1.i = phi i64 [ 3, %lean_string_dec_eq.exit.i ], [ 1, %lean_obj_tag.exit.i ], [ 3, %15 ]
  %25 = ptrtoint ptr %3 to i64
  %26 = and i64 %25, 1
  %.not = icmp eq i64 %26, 0
  br i1 %.not, label %27, label %lean_dec.exit11

27:                                               ; preds = %l_Std_DHashMap_Internal_AssocList_contains___at_Lean_Elab_Tactic_GuardMsgs_elabGuardMsgs___spec__11.exit
  %28 = load i32, ptr %3, align 4, !tbaa !8
  %29 = icmp sgt i32 %28, 1
  br i1 %29, label %30, label %32, !prof !13

30:                                               ; preds = %27
  %31 = add nsw i32 %28, -1
  store i32 %31, ptr %3, align 4, !tbaa !8
  br label %lean_dec.exit11

32:                                               ; preds = %27
  %.not.i = icmp eq i32 %28, 0
  br i1 %.not.i, label %lean_dec.exit11, label %33

33:                                               ; preds = %32
  tail call void @lean_dec_ref_cold(ptr noundef nonnull %3) #7
  br label %lean_dec.exit11

lean_dec.exit11:                                  ; preds = %33, %32, %30, %l_Std_DHashMap_Internal_AssocList_contains___at_Lean_Elab_Tactic_GuardMsgs_elabGuardMsgs___spec__11.exit
  %34 = ptrtoint ptr %2 to i64
  %35 = and i64 %34, 1
  %.not18 = icmp eq i64 %35, 0
  br i1 %.not18, label %36, label %lean_dec.exit10

36:                                               ; preds = %lean_dec.exit11
  %37 = load i32, ptr %2, align 4, !tbaa !8
  %38 = icmp sgt i32 %37, 1
  br i1 %38, label %39, label %41, !prof !13

39:                                               ; preds = %36
  %40 = add nsw i32 %37, -1
  store i32 %40, ptr %2, align 4, !tbaa !8
  br label %lean_dec.exit10

41:                                               ; preds = %36
  %.not.i12 = icmp eq i32 %37, 0
  br i1 %.not.i12, label %lean_dec.exit10, label %42

42:                                               ; preds = %41
  tail call void @lean_dec_ref_cold(ptr noundef nonnull %2) #7
  br label %lean_dec.exit10

lean_dec.exit10:                                  ; preds = %42, %41, %39, %lean_dec.exit11
  %43 = ptrtoint ptr %1 to i64
  %44 = and i64 %43, 1
  %.not19 = icmp eq i64 %44, 0
  br i1 %.not19, label %45, label %lean_dec.exit9

45:                                               ; preds = %lean_dec.exit10
  %46 = load i32, ptr %1, align 4, !tbaa !8
  %47 = icmp sgt i32 %46, 1
  br i1 %47, label %48, label %50, !prof !13

48:                                               ; preds = %45
  %49 = add nsw i32 %46, -1
  store i32 %49, ptr %1, align 4, !tbaa !8
  br label %lean_dec.exit9

50:                                               ; preds = %45
  %.not.i14 = icmp eq i32 %46, 0
  br i1 %.not.i14, label %lean_dec.exit9, label %51

51:                                               ; preds = %50
  tail call void @lean_dec_ref_cold(ptr noundef nonnull %1) #7
  br label %lean_dec.exit9

lean_dec.exit9:                                   ; preds = %51, %50, %48, %lean_dec.exit10
  %52 = ptrtoint ptr %0 to i64
  %53 = and i64 %52, 1
  %.not20 = icmp eq i64 %53, 0
  br i1 %.not20, label %54, label %lean_dec.exit

54:                                               ; preds = %lean_dec.exit9
  %55 = load i32, ptr %0, align 4, !tbaa !8
  %56 = icmp sgt i32 %55, 1
  br i1 %56, label %57, label %59, !prof !13

57:                                               ; preds = %54
  %58 = add nsw i32 %55, -1
  store i32 %58, ptr %0, align 4, !tbaa !8
  br label %lean_dec.exit

59:                                               ; preds = %54
  %.not.i16 = icmp eq i32 %55, 0
  br i1 %.not.i16, label %lean_dec.exit, label %60

60:                                               ; preds = %59
  tail call void @lean_dec_ref_cold(ptr noundef nonnull %0) #7
  br label %lean_dec.exit

lean_dec.exit:                                    ; preds = %60, %59, %57, %lean_dec.exit9
  %61 = inttoptr i64 %.1.i to ptr
  ret ptr %61
}